target datalayout = "e-m:e-p270:32:32-p271:32:32-p272:64:64-i64:64-i128:128-f80:128-n8:16:32:64-S128"
target triple = "x86_64-pc-linux-gnu"

%"class.Ipopt::Matrix" = type <{ %"class.Ipopt::TaggedObject", %"class.Ipopt::SmartPtr", i32, i8, [3 x i8] }>
%"class.Ipopt::TaggedObject" = type { %"class.Ipopt::ReferencedObject.base", %"class.Ipopt::Subject", i32, i32 }
%"class.Ipopt::ReferencedObject.base" = type <{ ptr, i32 }>
%"class.Ipopt::Subject" = type { ptr, %"class.std::vector" }
%"class.std::vector" = type { %"struct.std::_Vector_base" }
%"struct.std::_Vector_base" = type { %"struct.std::_Vector_base<Ipopt::Observer *, std::allocator<Ipopt::Observer *>>::_Vector_impl" }
%"struct.std::_Vector_base<Ipopt::Observer *, std::allocator<Ipopt::Observer *>>::_Vector_impl" = type { %"struct.std::_Vector_base<Ipopt::Observer *, std::allocator<Ipopt::Observer *>>::_Vector_impl_data" }
%"struct.std::_Vector_base<Ipopt::Observer *, std::allocator<Ipopt::Observer *>>::_Vector_impl_data" = type { ptr, ptr, ptr }
%"class.Ipopt::SmartPtr" = type { ptr }
%"class.Ipopt::DenseGenMatrix" = type { %"class.Ipopt::Matrix.base", ptr, ptr, i8, i32, ptr }
%"class.Ipopt::Matrix.base" = type <{ %"class.Ipopt::TaggedObject", %"class.Ipopt::SmartPtr", i32, i8 }>
%"class.Ipopt::MatrixSpace" = type { %"class.Ipopt::ReferencedObject.base", i32, i32, [4 x i8] }

; Function Attrs: mustprogress nounwind uwtable
define linkonce_odr noundef i32 @_ZNK5Ipopt11MatrixSpace5NColsEv(ptr noundef nonnull align 8 dereferenceable(20) %0) #0 comdat align 2 {
  %2 = alloca ptr, align 8
  store ptr %0, ptr %2, align 8, !tbaa !37
  %3 = load ptr, ptr %2, align 8
  %4 = getelementptr inbounds nuw %"class.Ipopt::MatrixSpace", ptr %3, i32 0, i32 2
  %5 = load i32, ptr %4, align 8, !tbaa !104
  ret i32 %5
}

; Function Attrs: mustprogress nounwind uwtable
define linkonce_odr noundef i32 @_ZNK5Ipopt11MatrixSpace5NRowsEv(ptr noundef nonnull align 8 dereferenceable(20) %0) #0 comdat align 2 {
  %2 = alloca ptr, align 8
  store ptr %0, ptr %2, align 8, !tbaa !37
  %3 = load ptr, ptr %2, align 8
  %4 = getelementptr inbounds nuw %"class.Ipopt::MatrixSpace", ptr %3, i32 0, i32 1
  %5 = load i32, ptr %4, align 4, !tbaa !102
  ret i32 %5
}

; Function Attrs: mustprogress nounwind uwtable
define linkonce_odr noundef ptr @_ZNK5Ipopt8SmartPtrIKNS_11MatrixSpaceEEptEv(ptr noundef nonnull align 8 dereferenceable(8) %0) #0 comdat align 2 {
  %2 = alloca ptr, align 8
  store ptr %0, ptr %2, align 8, !tbaa !107
  %3 = load ptr, ptr %2, align 8
  %4 = getelementptr inbounds nuw %"class.Ipopt::SmartPtr", ptr %3, i32 0, i32 0
  %5 = load ptr, ptr %4, align 8, !tbaa !109
  ret ptr %5
}

; Function Attrs: inlinehint mustprogress uwtable
define linkonce_odr noundef i32 @_ZNK5Ipopt6Matrix5NColsEv(ptr noundef nonnull align 8 dereferenceable(69) %0) #3 comdat align 2 {
  %2 = alloca ptr, align 8
  store ptr %0, ptr %2, align 8, !tbaa !3
  %3 = load ptr, ptr %2, align 8
  %4 = getelementptr inbounds nuw %"class.Ipopt::Matrix", ptr %3, i32 0, i32 1
  %5 = call noundef ptr @_ZNK5Ipopt8SmartPtrIKNS_11MatrixSpaceEEptEv(ptr noundef nonnull align 8 dereferenceable(8) %4)
  %6 = call noundef i32 @_ZNK5Ipopt11MatrixSpace5NColsEv(ptr noundef nonnull align 8 dereferenceable(20) %5)
  ret i32 %6
}

; Function Attrs: inlinehint mustprogress uwtable
define linkonce_odr noundef i32 @_ZNK5Ipopt6Matrix5NRowsEv(ptr noundef nonnull align 8 dereferenceable(69) %0) #3 comdat align 2 {
  %2 = alloca ptr, align 8
  store ptr %0, ptr %2, align 8, !tbaa !3
  %3 = load ptr, ptr %2, align 8
  %4 = getelementptr inbounds nuw %"class.Ipopt::Matrix", ptr %3, i32 0, i32 1
  %5 = call noundef ptr @_ZNK5Ipopt8SmartPtrIKNS_11MatrixSpaceEEptEv(ptr noundef nonnull align 8 dereferenceable(8) %4)
  %6 = call noundef i32 @_ZNK5Ipopt11MatrixSpace5NRowsEv(ptr noundef nonnull align 8 dereferenceable(20) %5)
  ret i32 %6
}

; Function Attrs: mustprogress uwtable
define noundef zeroext i1 @_ZNK5Ipopt14DenseGenMatrix19HasValidNumbersImplEv(ptr noundef nonnull align 8 dereferenceable(104) %0) unnamed_addr #2 align 2 {
  %2 = alloca ptr, align 8
  %3 = alloca double, align 8
  store ptr %0, ptr %2, align 8, !tbaa !10
  %4 = load ptr, ptr %2, align 8
  call void @llvm.lifetime.start.p0(i64 8, ptr %3) #16
  %5 = call noundef i32 @_ZNK5Ipopt6Matrix5NRowsEv(ptr noundef nonnull align 8 dereferenceable(69) %4)
  %6 = call noundef i32 @_ZNK5Ipopt6Matrix5NColsEv(ptr noundef nonnull align 8 dereferenceable(69) %4)
  %7 = mul nsw i32 %5, %6
  %8 = getelementptr inbounds nuw %"class.Ipopt::DenseGenMatrix", ptr %4, i32 0, i32 2
  %9 = load ptr, ptr %8, align 8, !tbaa !33
  %10 = call noundef double @_ZN5Ipopt10IpBlasAsumEiPKdi(i32 noundef %7, ptr noundef %9, i32 noundef 1)
  store double %10, ptr %3, align 8, !tbaa !43
  %11 = load double, ptr %3, align 8, !tbaa !43
  %12 = call noundef zeroext i1 @_ZN5Ipopt14IsFiniteNumberEd(double noundef %11)
  call void @llvm.lifetime.end.p0(i64 8, ptr %3) #16
  ret i1 %12
}