; Function Attrs: mustprogress uwtable
define noundef zeroext i1 @_ZNK5Ipopt14DenseGenMatrix19HasValidNumbersImplEv(ptr noundef nonnull readonly align 8 captures(none) dereferenceable(104) %0) unnamed_addr #2 align 2 {
  %2 = getelementptr inbounds nuw i8, ptr %0, i64 56
  %3 = load ptr, ptr %2, align 8, !tbaa !6
  %4 = getelementptr inbounds nuw i8, ptr %3, i64 12
  %5 = load i32, ptr %4, align 4, !tbaa !33
  %6 = getelementptr inbounds nuw i8, ptr %3, i64 16
  %7 = load i32, ptr %6, align 8, !tbaa !31
  %8 = mul nsw i32 %7, %5
  %9 = getelementptr inbounds nuw i8, ptr %0, i64 80
  %10 = load ptr, ptr %9, align 8, !tbaa !34
  %11 = tail call noundef double @_ZN5Ipopt10IpBlasAsumEiPKdi(i32 noundef %8, ptr noundef %10, i32 noundef 1)
  %12 = tail call noundef zeroext i1 @_ZN5Ipopt14IsFiniteNumberEd(double noundef %11)
  ret i1 %12
}